Certificate:
    Data:
        Version: 3 (0x2)
        Serial Number: 1 (0x1)
        Signature Algorithm: sha1WithRSAEncryption
        Issuer: C=US, ST=WA, L=Seattle, O=PeerSec, OU=Test, CN=RSA CA for ECDH_RSA test
        Validity
            Not Before: Jun  9 22:40:11 2011 GMT
            Not After : Jun  8 22:40:11 2012 GMT
        Subject: C=US, ST=WA, O=PeerSec, OU=Test, CN=ECDH_RSA Server Certificate
        Subject Public Key Info:
            Public Key Algorithm: id-ecPublicKey
                Public-Key: (256 bit)
                pub: 
                    04:a7:8a:43:32:f6:c9:2b:ad:f7:f3:6f:ed:4c:76:
                    e6:c5:d4:f5:ab:51:22:a5:14:6a:10:41:52:c4:83:
                    08:a2:0b:cf:50:03:7e:fb:97:9e:74:11:99:d4:38:
                    4f:e2:4b:92:d0:fc:ff:f4:42:a6:f1:63:e0:e8:62:
                    12:f9:6f:60:5c
                ASN1 OID: prime256v1
        X509v3 extensions:
            X509v3 Basic Constraints: 
                CA:FALSE
            Netscape Comment: 
                OpenSSL Generated Certificate
            X509v3 Subject Key Identifier: 
                D3:37:64:87:35:7E:45:93:37:DB:D0:29:02:DE:78:E8:31:43:AD:B7
            X509v3 Authority Key Identifier: 
                keyid:AB:11:00:44:21:C9:DA:CB:B5:C0:4D:80:9A:70:DE:19:8B:65:C9:B6

    Signature Algorithm: sha1WithRSAEncryption
        c5:ad:8b:94:1a:4c:41:bc:34:f9:8f:b6:42:51:ef:e9:74:d7:
        7e:bc:f0:0a:7b:6b:22:46:6b:20:0b:0f:e5:46:b6:fc:6a:0c:
        e1:55:04:7f:45:35:b8:bd:0d:f4:83:b7:73:5a:5f:66:df:aa:
        bc:f7:42:77:29:dc:65:1c:28:23:c3:50:ef:7a:9d:e7:ff:44:
        b0:41:78:37:77:ef:51:f2:60:3c:b0:2b:d8:8e:ba:a3:29:90:
        28:ec:3a:56:1e:f6:a9:ac:cb:43:54:8e:51:a7:24:a6:29:3f:
        69:98:be:dc:9e:58:14:3f:e4:cf:fd:db:58:f7:4d:64:df:18:
        3f:95
-----BEGIN CERTIFICATE-----
MIICezCCAeSgAwIBAgIBATANBgkqhkiG9w0BAQUFADBwMQswCQYDVQQGEwJVUzEL
MAkGA1UECBMCV0ExEDAOBgNVBAcTB1NlYXR0bGUxEDAOBgNVBAoTB1BlZXJTZWMx
DTALBgNVBAsTBFRlc3QxITAfBgNVBAMUGFJTQSBDQSBmb3IgRUNESF9SU0EgdGVz
dDAeFw0xMTA2MDkyMjQwMTFaFw0xMjA2MDgyMjQwMTFaMGExCzAJBgNVBAYTAlVT
MQswCQYDVQQIEwJXQTEQMA4GA1UEChMHUGVlclNlYzENMAsGA1UECxMEVGVzdDEk
MCIGA1UEAxQbRUNESF9SU0EgU2VydmVyIENlcnRpZmljYXRlMFkwEwYHKoZIzj0C
AQYIKoZIzj0DAQcDQgAEp4pDMvbJK63382/tTHbmxdT1q1EipRRqEEFSxIMIogvP
UAN++5eedBGZ1DhP4kuS0Pz/9EKm8WPg6GIS+W9gXKN7MHkwCQYDVR0TBAIwADAs
BglghkgBhvhCAQ0EHxYdT3BlblNTTCBHZW5lcmF0ZWQgQ2VydGlmaWNhdGUwHQYD
VR0OBBYEFNM3ZIc1fkWTN9vQKQLeeOgxQ623MB8GA1UdIwQYMBaAFKsRAEQhydrL
tcBNgJpw3hmLZcm2MA0GCSqGSIb3DQEBBQUAA4GBAMWti5QaTEG8NPmPtkJR7+l0
13688Ap7ayJGayALD+VGtvxqDOFVBH9FNbi9DfSDt3NaX2bfqrz3Qncp3GUcKCPD
UO96nef/RLBBeDd371HyYDywK9iOuqMpkCjsOlYe9qmsy0NUjlGnJKYpP2mYvtye
WBQ/5M/921j3TWTfGD+V
-----END CERTIFICATE-----
